target datalayout = "e-m:e-p270:32:32-p271:32:32-p272:64:64-i64:64-i128:128-f80:128-n8:16:32:64-S128"
target triple = "x86_64-pc-linux-gnu"

; Function Attrs: nounwind uwtable
define internal ptr @php_plain_files_stream_opener(ptr noundef %0, ptr noundef %1, ptr noundef %2, i32 noundef %3, ptr noundef %4, ptr noundef %5) #0 {
  %7 = alloca ptr, align 8
  %8 = alloca ptr, align 8
  %9 = alloca ptr, align 8
  %10 = alloca ptr, align 8
  %11 = alloca i32, align 4
  %12 = alloca ptr, align 8
  %13 = alloca ptr, align 8
  store ptr %0, ptr %8, align 8, !tbaa !71
  store ptr %1, ptr %9, align 8, !tbaa !4
  store ptr %2, ptr %10, align 8, !tbaa !4
  store i32 %3, ptr %11, align 4, !tbaa !12
  store ptr %4, ptr %12, align 8, !tbaa !14
  store ptr %5, ptr %13, align 8, !tbaa !72
  %14 = load i32, ptr %11, align 4, !tbaa !12
  %15 = and i32 %14, 1024
  %16 = icmp eq i32 %15, 0
  br i1 %16, label %17, label %22

17:                                               ; preds = %6
  %18 = load ptr, ptr %9, align 8, !tbaa !4
  %19 = call i32 @php_check_open_basedir(ptr noundef %18)
  %20 = icmp ne i32 %19, 0
  br i1 %20, label %21, label %22

21:                                               ; preds = %17
  store ptr null, ptr %7, align 8
  br label %28

22:                                               ; preds = %17, %6
  %23 = load ptr, ptr %9, align 8, !tbaa !4
  %24 = load ptr, ptr %10, align 8, !tbaa !4
  %25 = load ptr, ptr %12, align 8, !tbaa !14
  %26 = load i32, ptr %11, align 4, !tbaa !12
  %27 = call ptr @_php_stream_fopen(ptr noundef %23, ptr noundef %24, ptr noundef %25, i32 noundef %26)
  store ptr %27, ptr %7, align 8
  br label %28

28:                                               ; preds = %22, %21
  %29 = load ptr, ptr %7, align 8
  ret ptr %29
}