; Function Attrs: nounwind uwtable
define internal ptr @php_plain_files_stream_opener(ptr readnone captures(none) %0, ptr noundef %1, ptr noundef %2, i32 noundef %3, ptr noundef captures(address_is_null) %4, ptr readnone captures(none) %5) #3 {
  %7 = and i32 %3, 1024
  %8 = icmp eq i32 %7, 0
  br i1 %8, label %9, label %11

9:                                                ; preds = %6
  %10 = tail call i32 @php_check_open_basedir(ptr noundef %1) #17
  %.not = icmp eq i32 %10, 0
  br i1 %.not, label %11, label %13

11:                                               ; preds = %9, %6
  %12 = tail call ptr @_php_stream_fopen(ptr noundef %1, ptr noundef %2, ptr noundef %4, i32 noundef %3)
  br label %13

13:                                               ; preds = %9, %11
  %.0 = phi ptr [ %12, %11 ], [ null, %9 ]
  ret ptr %.0
}